target datalayout = "e-m:e-p270:32:32-p271:32:32-p272:64:64-i64:64-i128:128-f80:128-n8:16:32:64-S128"
target triple = "x86_64-pc-linux-gnu"

%struct.strbuf = type { i64, i64, ptr }
%struct.msg_arg = type { i32, %struct.strbuf }
%struct.option = type { i32, i32, ptr, ptr, ptr, ptr, i32, ptr, i64, ptr, i64, ptr }

@.str.92 = private unnamed_addr constant [14 x i8] c"builtin/tag.c\00", align 1
@.str.93 = private unnamed_addr constant [41 x i8] c"option callback does not expect negation\00", align 1
@.str.94 = private unnamed_addr constant [3 x i8] c"\0A\0A\00", align 1

; Function Attrs: inlinehint nounwind uwtable
define internal void @strbuf_addstr(ptr noundef %0, ptr noundef %1) #5 {
  %3 = alloca ptr, align 8
  %4 = alloca ptr, align 8
  store ptr %0, ptr %3, align 8, !tbaa !108
  store ptr %1, ptr %4, align 8, !tbaa !11
  %5 = load ptr, ptr %3, align 8, !tbaa !108
  %6 = load ptr, ptr %4, align 8, !tbaa !11
  %7 = load ptr, ptr %4, align 8, !tbaa !11
  %8 = call i64 @strlen(ptr noundef %7) #13
  call void @strbuf_add(ptr noundef %5, ptr noundef %6, i64 noundef %8)
  ret void
}

; Function Attrs: nounwind uwtable
define internal i32 @parse_msg_arg(ptr noundef %0, ptr noundef %1, i32 noundef %2) #0 {
  %4 = alloca i32, align 4
  %5 = alloca ptr, align 8
  %6 = alloca ptr, align 8
  %7 = alloca i32, align 4
  %8 = alloca ptr, align 8
  %9 = alloca i32, align 4
  store ptr %0, ptr %5, align 8, !tbaa !83
  store ptr %1, ptr %6, align 8, !tbaa !11
  store i32 %2, ptr %7, align 4, !tbaa !4
  call void @llvm.lifetime.start.p0(i64 8, ptr %8) #11
  %10 = load ptr, ptr %5, align 8, !tbaa !83
  %11 = getelementptr inbounds nuw %struct.option, ptr %10, i32 0, i32 3
  %12 = load ptr, ptr %11, align 8, !tbaa !20
  store ptr %12, ptr %8, align 8, !tbaa !85
  br label %13

13:                                               ; preds = %3
  %14 = load i32, ptr %7, align 4, !tbaa !4
  %15 = icmp ne i32 %14, 0
  br i1 %15, label %16, label %17

16:                                               ; preds = %13
  call void (ptr, i32, ptr, ...) @BUG_fl(ptr noundef @.str.92, i32 noundef 442, ptr noundef @.str.93) #12
  unreachable

17:                                               ; preds = %13
  br label %18

18:                                               ; preds = %17
  br label %19

19:                                               ; preds = %18
  %20 = load ptr, ptr %6, align 8, !tbaa !11
  %21 = icmp ne ptr %20, null
  br i1 %21, label %23, label %22

22:                                               ; preds = %19
  store i32 -1, ptr %4, align 4
  store i32 1, ptr %9, align 4
  br label %38

23:                                               ; preds = %19
  %24 = load ptr, ptr %8, align 8, !tbaa !85
  %25 = getelementptr inbounds nuw %struct.msg_arg, ptr %24, i32 0, i32 1
  %26 = getelementptr inbounds nuw %struct.strbuf, ptr %25, i32 0, i32 1
  %27 = load i64, ptr %26, align 8, !tbaa !87
  %28 = icmp ne i64 %27, 0
  br i1 %28, label %29, label %32

29:                                               ; preds = %23
  %30 = load ptr, ptr %8, align 8, !tbaa !85
  %31 = getelementptr inbounds nuw %struct.msg_arg, ptr %30, i32 0, i32 1
  call void @strbuf_addstr(ptr noundef %31, ptr noundef @.str.94)
  br label %32

32:                                               ; preds = %29, %23
  %33 = load ptr, ptr %8, align 8, !tbaa !85
  %34 = getelementptr inbounds nuw %struct.msg_arg, ptr %33, i32 0, i32 1
  %35 = load ptr, ptr %6, align 8, !tbaa !11
  call void @strbuf_addstr(ptr noundef %34, ptr noundef %35)
  %36 = load ptr, ptr %8, align 8, !tbaa !85
  %37 = getelementptr inbounds nuw %struct.msg_arg, ptr %36, i32 0, i32 0
  store i32 1, ptr %37, align 8, !tbaa !47
  store i32 0, ptr %4, align 4
  store i32 1, ptr %9, align 4
  br label %38

38:                                               ; preds = %32, %22
  call void @llvm.lifetime.end.p0(i64 8, ptr %8) #11
  %39 = load i32, ptr %4, align 4
  ret i32 %39
}