; Function Attrs: nounwind uwtable
define internal range(i32 -1, 1) i32 @parse_msg_arg(ptr noundef readonly captures(none) %0, ptr noundef %1, i32 noundef %2) #0 {
  %4 = getelementptr inbounds nuw i8, ptr %0, i64 16
  %5 = load ptr, ptr %4, align 8, !tbaa !16
  %.not = icmp eq i32 %2, 0
  br i1 %.not, label %7, label %6

6:                                                ; preds = %3
  tail call void (ptr, i32, ptr, ...) @BUG_fl(ptr noundef nonnull @.str.92, i32 noundef 442, ptr noundef nonnull @.str.93) #16
  unreachable

7:                                                ; preds = %3
  %.not9 = icmp eq ptr %1, null
  br i1 %.not9, label %15, label %8

8:                                                ; preds = %7
  %9 = getelementptr inbounds nuw i8, ptr %5, i64 8
  %10 = getelementptr inbounds nuw i8, ptr %5, i64 16
  %11 = load i64, ptr %10, align 8, !tbaa !92
  %.not10 = icmp eq i64 %11, 0
  br i1 %.not10, label %13, label %12

12:                                               ; preds = %8
  tail call void @strbuf_add(ptr noundef nonnull %9, ptr noundef nonnull @.str.94, i64 noundef 2) #15
  br label %13

13:                                               ; preds = %12, %8
  %14 = tail call i64 @strlen(ptr noundef nonnull dereferenceable(1) %1) #17
  tail call void @strbuf_add(ptr noundef nonnull %9, ptr noundef nonnull %1, i64 noundef %14) #15
  store i32 1, ptr %5, align 8, !tbaa !54
  br label %15

15:                                               ; preds = %7, %13
  %.0 = phi i32 [ 0, %13 ], [ -1, %7 ]
  ret i32 %.0
}